; Function Attrs: null_pointer_is_valid sspstrong uwtable
define internal i32 @dissect_p1_T_bilateral_information(i1 zeroext %0, ptr noundef %1, i32 noundef %2, ptr noundef readonly captures(none) %3, ptr noundef %4, i32 noundef %5) #0 {
  %7 = alloca i32, align 4
  call void @llvm.lifetime.start.p0(i64 4, ptr nonnull %7) #5
  store i32 0, ptr %7, align 4
  %8 = getelementptr inbounds nuw i8, ptr %3, i64 16
  %9 = load ptr, ptr %8, align 8
  %10 = tail call i32 @dissect_ber_identifier(ptr noundef %9, ptr noundef %4, ptr noundef %1, i32 noundef %2, ptr noundef null, ptr noundef null, ptr noundef null)
  %11 = load ptr, ptr %8, align 8
  %12 = call i32 @dissect_ber_length(ptr noundef %11, ptr noundef %4, ptr noundef %1, i32 noundef %10, ptr noundef nonnull %7, ptr noundef null)
  %13 = load i32, ptr %7, align 4
  %14 = call ptr @proto_tree_add_item(ptr noundef %4, i32 noundef %5, ptr noundef %1, i32 noundef %2, i32 noundef %13, i32 noundef 0)
  %15 = load i32, ptr @ett_p1_bilateral_information, align 4
  %16 = call ptr @proto_item_add_subtree(ptr noundef %14, i32 noundef %15)
  %17 = load ptr, ptr %8, align 8
  %18 = call i32 @dissect_unknown_ber(ptr noundef %17, ptr noundef %1, i32 noundef %2, ptr noundef %16)
  call void @llvm.lifetime.end.p0(i64 4, ptr nonnull %7) #5
  ret i32 %18
}